target datalayout = "e-m:e-p270:32:32-p271:32:32-p272:64:64-i64:64-i128:128-f80:128-n8:16:32:64-S128"
target triple = "x86_64-unknown-linux-gnu"

%"class.Assimp::CIOStreamWrapper" = type { %"class.Assimp::IOStream", ptr, ptr }
%"class.Assimp::IOStream" = type { ptr }
%struct.aiFile = type { ptr, ptr, ptr, ptr, ptr, ptr, ptr }

; Function Attrs: mustprogress uwtable
define hidden void @_ZN6Assimp16CIOStreamWrapper5FlushEv(ptr noundef nonnull align 8 dereferenceable(24) %this) unnamed_addr #4 align 2 {
entry:
  %this.addr = alloca ptr, align 8
  store ptr %this, ptr %this.addr, align 8
  %this1 = load ptr, ptr %this.addr, align 8
  %mFile = getelementptr inbounds %"class.Assimp::CIOStreamWrapper", ptr %this1, i32 0, i32 1
  %0 = load ptr, ptr %mFile, align 8
  %FlushProc = getelementptr inbounds %struct.aiFile, ptr %0, i32 0, i32 5
  %1 = load ptr, ptr %FlushProc, align 8
  %mFile2 = getelementptr inbounds %"class.Assimp::CIOStreamWrapper", ptr %this1, i32 0, i32 1
  %2 = load ptr, ptr %mFile2, align 8
  call void %1(ptr noundef %2)
  ret void
}