; Function Attrs: mustprogress uwtable
define hidden void @_ZN6Assimp16CIOStreamWrapper5FlushEv(ptr nocapture noundef nonnull readonly align 8 dereferenceable(24) %this) unnamed_addr #4 align 2 {
entry:
  %mFile = getelementptr inbounds i8, ptr %this, i64 8
  %0 = load ptr, ptr %mFile, align 8
  %FlushProc = getelementptr inbounds i8, ptr %0, i64 40
  %1 = load ptr, ptr %FlushProc, align 8
  tail call void %1(ptr noundef %0)
  ret void
}